target datalayout = "e-m:e-p270:32:32-p271:32:32-p272:64:64-i64:64-i128:128-f80:128-n8:16:32:64-S128"
target triple = "x86_64-pc-linux-gnu"

%"class.std::basic_ostream" = type { ptr, %"class.std::basic_ios" }
%"class.std::basic_ios" = type { %"class.std::ios_base", ptr, i8, i8, ptr, ptr, ptr, ptr }
%"class.std::ios_base" = type { ptr, i64, i64, i32, i32, i32, ptr, %"struct.std::ios_base::_Words", [8 x %"struct.std::ios_base::_Words"], i32, ptr, %"class.std::locale" }
%"struct.std::ios_base::_Words" = type { ptr, i64 }
%"class.std::locale" = type { ptr }

@_ZSt4cout = external global %"class.std::basic_ostream", align 8
@_ZZL13filter_outputmmmE1i = internal global i64 0, align 8
@_ZZL13filter_outputmmmE1h = internal global i64 0, align 8
@_ZZL13filter_outputmmmE1t = internal global i64 0, align 8
@_ZZL13filter_outputmmmE1n = internal global i64 0, align 8
@.str.20 = private unnamed_addr constant [4 x i8] c"...\00", align 1

; Function Attrs: inlinehint nounwind uwtable
define linkonce_odr dso_local noundef i32 @_ZStorSt12_Ios_IostateS_(i32 noundef %0, i32 noundef %1) #14 comdat {
  %3 = alloca i32, align 4
  %4 = alloca i32, align 4
  store i32 %0, ptr %3, align 4, !tbaa !128
  store i32 %1, ptr %4, align 4, !tbaa !128
  %5 = load i32, ptr %3, align 4, !tbaa !128
  %6 = load i32, ptr %4, align 4, !tbaa !128
  %7 = or i32 %5, %6
  ret i32 %7
}

; Function Attrs: nounwind uwtable
define available_externally noundef i32 @_ZNKSt9basic_iosIcSt11char_traitsIcEE7rdstateEv(ptr noundef nonnull align 8 dereferenceable(264) %0) #5 align 2 {
  %2 = alloca ptr, align 8
  store ptr %0, ptr %2, align 8, !tbaa !32
  %3 = load ptr, ptr %2, align 8
  %4 = getelementptr inbounds nuw %"class.std::ios_base", ptr %3, i32 0, i32 5
  %5 = load i32, ptr %4, align 8, !tbaa !130
  ret i32 %5
}

; Function Attrs: nounwind uwtable
define linkonce_odr dso_local noundef i64 @_ZNSt11char_traitsIcE6lengthEPKc(ptr noundef %0) #5 comdat align 2 {
  %2 = alloca ptr, align 8
  store ptr %0, ptr %2, align 8, !tbaa !16
  %3 = load ptr, ptr %2, align 8, !tbaa !16
  %4 = call i64 @strlen(ptr noundef %3) #2
  ret i64 %4
}

; Function Attrs: uwtable
define available_externally void @_ZNSt9basic_iosIcSt11char_traitsIcEE8setstateESt12_Ios_Iostate(ptr noundef nonnull align 8 dereferenceable(264) %0, i32 noundef %1) #0 align 2 {
  %3 = alloca ptr, align 8
  %4 = alloca i32, align 4
  store ptr %0, ptr %3, align 8, !tbaa !32
  store i32 %1, ptr %4, align 4, !tbaa !128
  %5 = load ptr, ptr %3, align 8
  %6 = call noundef i32 @_ZNKSt9basic_iosIcSt11char_traitsIcEE7rdstateEv(ptr noundef nonnull align 8 dereferenceable(264) %5)
  %7 = load i32, ptr %4, align 4, !tbaa !128
  %8 = call noundef i32 @_ZStorSt12_Ios_IostateS_(i32 noundef %6, i32 noundef %7)
  call void @_ZNSt9basic_iosIcSt11char_traitsIcEE5clearESt12_Ios_Iostate(ptr noundef nonnull align 8 dereferenceable(264) %5, i32 noundef %8)
  ret void
}

; Function Attrs: uwtable
define available_externally noundef nonnull align 8 dereferenceable(8) ptr @_ZNSolsEPFRSoS_E(ptr noundef nonnull align 8 dereferenceable(8) %0, ptr noundef %1) #0 align 2 {
  %3 = alloca ptr, align 8
  %4 = alloca ptr, align 8
  store ptr %0, ptr %3, align 8, !tbaa !34
  store ptr %1, ptr %4, align 8, !tbaa !36
  %5 = load ptr, ptr %3, align 8
  %6 = load ptr, ptr %4, align 8, !tbaa !36
  %7 = call noundef nonnull align 8 dereferenceable(8) ptr %6(ptr noundef nonnull align 8 dereferenceable(8) %5)
  ret ptr %7
}

; Function Attrs: inlinehint uwtable
define available_externally noundef nonnull align 8 dereferenceable(8) ptr @_ZStlsISt11char_traitsIcEERSt13basic_ostreamIcT_ES5_PKc(ptr noundef nonnull align 8 dereferenceable(8) %0, ptr noundef %1) #7 {
  %3 = alloca ptr, align 8
  %4 = alloca ptr, align 8
  store ptr %0, ptr %3, align 8, !tbaa !34
  store ptr %1, ptr %4, align 8, !tbaa !16
  %5 = load ptr, ptr %4, align 8, !tbaa !16
  %6 = icmp ne ptr %5, null
  br i1 %6, label %13, label %7

7:                                                ; preds = %2
  %8 = load ptr, ptr %3, align 8, !tbaa !34
  %9 = load ptr, ptr %8, align 8, !tbaa !18
  %10 = getelementptr i8, ptr %9, i64 -24
  %11 = load i64, ptr %10, align 8
  %12 = getelementptr inbounds i8, ptr %8, i64 %11
  call void @_ZNSt9basic_iosIcSt11char_traitsIcEE8setstateESt12_Ios_Iostate(ptr noundef nonnull align 8 dereferenceable(264) %12, i32 noundef 1)
  br label %19

13:                                               ; preds = %2
  %14 = load ptr, ptr %3, align 8, !tbaa !34
  %15 = load ptr, ptr %4, align 8, !tbaa !16
  %16 = load ptr, ptr %4, align 8, !tbaa !16
  %17 = call noundef i64 @_ZNSt11char_traitsIcE6lengthEPKc(ptr noundef %16)
  %18 = call noundef nonnull align 8 dereferenceable(8) ptr @_ZSt16__ostream_insertIcSt11char_traitsIcEERSt13basic_ostreamIT_T0_ES6_PKS3_l(ptr noundef nonnull align 8 dereferenceable(8) %14, ptr noundef %15, i64 noundef %17)
  br label %19

19:                                               ; preds = %13, %7
  %20 = load ptr, ptr %3, align 8, !tbaa !34
  ret ptr %20
}

; Function Attrs: uwtable
define internal noundef zeroext i1 @_ZL13filter_outputmmm(i64 noundef %0, i64 noundef %1, i64 noundef %2) #0 {
  %4 = alloca i1, align 1
  %5 = alloca i64, align 8
  %6 = alloca i64, align 8
  %7 = alloca i64, align 8
  %8 = alloca i8, align 1
  store i64 %0, ptr %5, align 8, !tbaa !12
  store i64 %1, ptr %6, align 8, !tbaa !12
  store i64 %2, ptr %7, align 8, !tbaa !12
  %9 = load i64, ptr %7, align 8, !tbaa !12
  %10 = icmp ne i64 %9, 0
  br i1 %10, label %11, label %15

11:                                               ; preds = %3
  store i64 0, ptr @_ZZL13filter_outputmmmE1i, align 8, !tbaa !12
  %12 = load i64, ptr %5, align 8, !tbaa !12
  store i64 %12, ptr @_ZZL13filter_outputmmmE1h, align 8, !tbaa !12
  %13 = load i64, ptr %6, align 8, !tbaa !12
  store i64 %13, ptr @_ZZL13filter_outputmmmE1t, align 8, !tbaa !12
  %14 = load i64, ptr %7, align 8, !tbaa !12
  store i64 %14, ptr @_ZZL13filter_outputmmmE1n, align 8, !tbaa !12
  store i1 false, ptr %4, align 1
  br label %43

15:                                               ; preds = %3
  call void @llvm.lifetime.start.p0(i64 1, ptr %8) #2
  %16 = load i64, ptr @_ZZL13filter_outputmmmE1h, align 8, !tbaa !12
  %17 = load i64, ptr @_ZZL13filter_outputmmmE1i, align 8, !tbaa !12
  %18 = icmp ule i64 %16, %17
  br i1 %18, label %19, label %25

19:                                               ; preds = %15
  %20 = load i64, ptr @_ZZL13filter_outputmmmE1i, align 8, !tbaa !12
  %21 = load i64, ptr @_ZZL13filter_outputmmmE1t, align 8, !tbaa !12
  %22 = add i64 %20, %21
  %23 = load i64, ptr @_ZZL13filter_outputmmmE1n, align 8, !tbaa !12
  %24 = icmp ult i64 %22, %23
  br label %25

25:                                               ; preds = %19, %15
  %26 = phi i1 [ false, %15 ], [ %24, %19 ]
  %27 = xor i1 %26, true
  %28 = zext i1 %27 to i8
  store i8 %28, ptr %8, align 1, !tbaa !50
  %29 = load i8, ptr %8, align 1, !tbaa !50, !range !52, !noundef !53
  %30 = trunc i8 %29 to i1
  br i1 %30, label %38, label %31

31:                                               ; preds = %25
  %32 = load i64, ptr @_ZZL13filter_outputmmmE1i, align 8, !tbaa !12
  %33 = load i64, ptr @_ZZL13filter_outputmmmE1h, align 8, !tbaa !12
  %34 = icmp eq i64 %32, %33
  br i1 %34, label %35, label %38

35:                                               ; preds = %31
  %36 = call noundef nonnull align 8 dereferenceable(8) ptr @_ZStlsISt11char_traitsIcEERSt13basic_ostreamIcT_ES5_PKc(ptr noundef nonnull align 8 dereferenceable(8) @_ZSt4cout, ptr noundef @.str.20)
  %37 = call noundef nonnull align 8 dereferenceable(8) ptr @_ZNSolsEPFRSoS_E(ptr noundef nonnull align 8 dereferenceable(8) %36, ptr noundef @_ZSt4endlIcSt11char_traitsIcEERSt13basic_ostreamIT_T0_ES6_)
  br label %38

38:                                               ; preds = %35, %31, %25
  %39 = load i64, ptr @_ZZL13filter_outputmmmE1i, align 8, !tbaa !12
  %40 = add i64 %39, 1
  store i64 %40, ptr @_ZZL13filter_outputmmmE1i, align 8, !tbaa !12
  %41 = load i8, ptr %8, align 1, !tbaa !50, !range !52, !noundef !53
  %42 = trunc i8 %41 to i1
  store i1 %42, ptr %4, align 1
  call void @llvm.lifetime.end.p0(i64 1, ptr %8) #2
  br label %43

43:                                               ; preds = %38, %11
  %44 = load i1, ptr %4, align 1
  ret i1 %44
}