; Function Attrs: norecurse uwtable
define internal fastcc noundef zeroext i1 @_ZL13filter_outputmmm(i64 noundef %0, i64 noundef range(i64 0, 4) %1, i64 noundef %2) unnamed_addr #2 {
  %.not = icmp eq i64 %2, 0
  br i1 %.not, label %5, label %4

4:                                                ; preds = %3
  store i64 0, ptr @_ZZL13filter_outputmmmE1i, align 8, !tbaa !4
  store i64 %0, ptr @_ZZL13filter_outputmmmE1h, align 8, !tbaa !4
  store i64 %1, ptr @_ZZL13filter_outputmmmE1t, align 8, !tbaa !4
  store i64 %2, ptr @_ZZL13filter_outputmmmE1n, align 8, !tbaa !4
  br label %38

5:                                                ; preds = %3
  %6 = load i64, ptr @_ZZL13filter_outputmmmE1h, align 8, !tbaa !4
  %7 = load i64, ptr @_ZZL13filter_outputmmmE1i, align 8, !tbaa !4
  %.not8 = icmp ugt i64 %6, %7
  %8 = load i64, ptr @_ZZL13filter_outputmmmE1t, align 8
  %9 = add i64 %8, %7
  %10 = load i64, ptr @_ZZL13filter_outputmmmE1n, align 8
  %11 = icmp uge i64 %9, %10
  %12 = select i1 %.not8, i1 true, i1 %11
  %13 = icmp ne i64 %7, %6
  %or.cond.not = select i1 %13, i1 true, i1 %11
  br i1 %or.cond.not, label %35, label %14

14:                                               ; preds = %5
  %15 = tail call noundef nonnull align 8 dereferenceable(8) ptr @_ZSt16__ostream_insertIcSt11char_traitsIcEERSt13basic_ostreamIT_T0_ES6_PKS3_l(ptr noundef nonnull align 8 dereferenceable(8) @_ZSt4cout, ptr noundef nonnull @.str.20, i64 noundef 3)
  %16 = load ptr, ptr @_ZSt4cout, align 8, !tbaa !17
  %17 = getelementptr i8, ptr %16, i64 -24
  %18 = load i64, ptr %17, align 8
  %19 = getelementptr inbounds i8, ptr @_ZSt4cout, i64 %18
  %20 = getelementptr inbounds nuw i8, ptr %19, i64 240
  %21 = load ptr, ptr %20, align 8, !tbaa !31
  %.not.i.i.i = icmp eq ptr %21, null
  br i1 %.not.i.i.i, label %22, label %_ZSt13__check_facetISt5ctypeIcEERKT_PS3_.exit.i.i

22:                                               ; preds = %14
  tail call void @_ZSt16__throw_bad_castv() #24
  unreachable

_ZSt13__check_facetISt5ctypeIcEERKT_PS3_.exit.i.i: ; preds = %14
  %23 = getelementptr inbounds nuw i8, ptr %21, i64 56
  %24 = load i8, ptr %23, align 8, !tbaa !39
  %.not.i1.i.i = icmp eq i8 %24, 0
  br i1 %.not.i1.i.i, label %28, label %25

25:                                               ; preds = %_ZSt13__check_facetISt5ctypeIcEERKT_PS3_.exit.i.i
  %26 = getelementptr inbounds nuw i8, ptr %21, i64 67
  %27 = load i8, ptr %26, align 1, !tbaa !15
  br label %_ZSt4endlIcSt11char_traitsIcEERSt13basic_ostreamIT_T0_ES6_.exit

28:                                               ; preds = %_ZSt13__check_facetISt5ctypeIcEERKT_PS3_.exit.i.i
  tail call void @_ZNKSt5ctypeIcE13_M_widen_initEv(ptr noundef nonnull align 8 dereferenceable(570) %21)
  %29 = load ptr, ptr %21, align 8, !tbaa !17
  %30 = getelementptr inbounds nuw i8, ptr %29, i64 48
  %31 = load ptr, ptr %30, align 8
  %32 = tail call noundef signext i8 %31(ptr noundef nonnull align 8 dereferenceable(570) %21, i8 noundef signext 10)
  br label %_ZSt4endlIcSt11char_traitsIcEERSt13basic_ostreamIT_T0_ES6_.exit

_ZSt4endlIcSt11char_traitsIcEERSt13basic_ostreamIT_T0_ES6_.exit: ; preds = %25, %28
  %.0.i.i.i = phi i8 [ %27, %25 ], [ %32, %28 ]
  %33 = tail call noundef nonnull align 8 dereferenceable(8) ptr @_ZNSo3putEc(ptr noundef nonnull align 8 dereferenceable(8) @_ZSt4cout, i8 noundef signext %.0.i.i.i)
  %34 = tail call noundef nonnull align 8 dereferenceable(8) ptr @_ZNSo5flushEv(ptr noundef nonnull align 8 dereferenceable(8) %33)
  %.pre = load i64, ptr @_ZZL13filter_outputmmmE1i, align 8, !tbaa !4
  br label %35

35:                                               ; preds = %_ZSt4endlIcSt11char_traitsIcEERSt13basic_ostreamIT_T0_ES6_.exit, %5
  %36 = phi i64 [ %.pre, %_ZSt4endlIcSt11char_traitsIcEERSt13basic_ostreamIT_T0_ES6_.exit ], [ %7, %5 ]
  %37 = add i64 %36, 1
  store i64 %37, ptr @_ZZL13filter_outputmmmE1i, align 8, !tbaa !4
  br label %38

38:                                               ; preds = %35, %4
  %.0 = phi i1 [ false, %4 ], [ %12, %35 ]
  ret i1 %.0
}